target datalayout = "e-m:e-p270:32:32-p271:32:32-p272:64:64-i64:64-i128:128-f80:128-n8:16:32:64-S128"
target triple = "x86_64-pc-linux-gnu"

%struct.drwav_fmt = type { i16, i16, i32, i32, i16, i16, i16, i16, i32, [16 x i8] }
%struct.drwav_allocation_callbacks = type { ptr, ptr, ptr, ptr }
%struct.drwav = type { ptr, ptr, ptr, ptr, %struct.drwav_allocation_callbacks, i32, %struct.drwav_fmt, i32, i16, i16, i16, i64, i64, i64, i64, i64, i64, i32, ptr, i32, %struct.drwav__memory_stream, %struct.drwav__memory_stream_write, %struct.anon.57, %struct.anon.58, %struct.anon.59 }
%struct.drwav__memory_stream = type { ptr, i64, i64 }
%struct.drwav__memory_stream_write = type { ptr, ptr, i64, i64, i64 }
%struct.anon.57 = type { i32, [2 x i16], [2 x i32], [4 x i32], i32, [2 x [2 x i32]] }
%struct.anon.58 = type { i32, [2 x i32], [2 x i32], [16 x i32], i32 }
%struct.anon.59 = type { i8, i8 }

; Function Attrs: nounwind uwtable
define hidden i32 @drwav_get_length_in_pcm_frames(ptr noundef %0, ptr noundef %1) #0 {
  %3 = alloca i32, align 4
  %4 = alloca ptr, align 8
  %5 = alloca ptr, align 8
  store ptr %0, ptr %4, align 8
  store ptr %1, ptr %5, align 8
  %6 = load ptr, ptr %5, align 8
  %7 = icmp eq ptr %6, null
  br i1 %7, label %8, label %9

8:                                                ; preds = %2
  store i32 -2, ptr %3, align 4
  br label %19

9:                                                ; preds = %2
  %10 = load ptr, ptr %5, align 8
  store i64 0, ptr %10, align 8
  %11 = load ptr, ptr %4, align 8
  %12 = icmp eq ptr %11, null
  br i1 %12, label %13, label %14

13:                                               ; preds = %9
  store i32 -2, ptr %3, align 4
  br label %19

14:                                               ; preds = %9
  %15 = load ptr, ptr %4, align 8
  %16 = getelementptr inbounds nuw %struct.drwav, ptr %15, i32 0, i32 11
  %17 = load i64, ptr %16, align 8
  %18 = load ptr, ptr %5, align 8
  store i64 %17, ptr %18, align 8
  store i32 0, ptr %3, align 4
  br label %19

19:                                               ; preds = %14, %13, %8
  %20 = load i32, ptr %3, align 4
  ret i32 %20
}