; Function Attrs: mustprogress nofree norecurse nosync nounwind willreturn memory(argmem: readwrite) uwtable
define hidden range(i32 -2, 1) i32 @drwav_get_length_in_pcm_frames(ptr noundef readonly captures(address_is_null) %0, ptr noundef writeonly captures(address_is_null) %1) local_unnamed_addr #18 {
  %3 = icmp eq ptr %1, null
  br i1 %3, label %9, label %4

4:                                                ; preds = %2
  store i64 0, ptr %1, align 8
  %5 = icmp eq ptr %0, null
  br i1 %5, label %9, label %6

6:                                                ; preds = %4
  %7 = getelementptr inbounds nuw i8, ptr %0, i64 120
  %8 = load i64, ptr %7, align 8
  store i64 %8, ptr %1, align 8
  br label %9

9:                                                ; preds = %4, %2, %6
  %.0 = phi i32 [ 0, %6 ], [ -2, %2 ], [ -2, %4 ]
  ret i32 %.0
}